; Function Attrs: nounwind uwtable
define internal range(i32 0, 2) i32 @gen_conn_close(ptr noundef readonly captures(none) %0) #0 {
  %2 = alloca %struct.ossl_quic_frame_conn_close_st, align 8
  call void @llvm.lifetime.start.p0(i64 40, ptr nonnull %2) #8
  store i64 0, ptr %2, align 8
  %3 = getelementptr inbounds nuw i8, ptr %2, i64 8
  store i64 2345, ptr %3, align 8, !tbaa !121
  %4 = getelementptr inbounds nuw i8, ptr %2, i64 16
  store i64 30, ptr %4, align 8, !tbaa !123
  %5 = getelementptr inbounds nuw i8, ptr %2, i64 24
  store ptr @.str.155, ptr %5, align 8, !tbaa !124
  %6 = getelementptr inbounds nuw i8, ptr %2, i64 32
  store i64 13, ptr %6, align 8, !tbaa !125
  %7 = load ptr, ptr %0, align 8, !tbaa !74
  %8 = call i32 @ossl_quic_tx_packetiser_schedule_conn_close(ptr noundef %7, ptr noundef nonnull %2) #8
  %9 = icmp ne i32 %8, 0
  %10 = zext i1 %9 to i32
  %11 = call i32 @test_true(ptr noundef nonnull @.str.2, i32 noundef 1096, ptr noundef nonnull @.str.156, i32 noundef %10) #8
  %.not = icmp ne i32 %11, 0
  %. = zext i1 %.not to i32
  call void @llvm.lifetime.end.p0(i64 40, ptr nonnull %2) #8
  ret i32 %.
}